target datalayout = "e-m:e-p270:32:32-p271:32:32-p272:64:64-i64:64-i128:128-f80:128-n8:16:32:64-S128"
target triple = "x86_64-pc-linux-gnu"

%struct.pmix_gds_globals_t = type { %struct.pmix_list_t, i8, i8, ptr }
%struct.pmix_list_t = type { %struct.pmix_object_t, %struct.pmix_list_item_t, i64 }
%struct.pmix_object_t = type { %union.pthread_mutex_t, ptr, i32, %struct.pmix_tma }
%union.pthread_mutex_t = type { %struct.__pthread_mutex_s }
%struct.__pthread_mutex_s = type { i32, i32, i32, i32, i32, i16, i16, %struct.__pthread_internal_list }
%struct.__pthread_internal_list = type { ptr, ptr }
%struct.pmix_tma = type { ptr, ptr, ptr, ptr, ptr, ptr, ptr, ptr }
%struct.pmix_list_item_t = type { %struct.pmix_object_t, ptr, ptr, i32 }

@pmix_gds_globals = external global %struct.pmix_gds_globals_t, align 8

; Function Attrs: nounwind uwtable
define ptr @pmix_gds_base_get_available_modules() #0 {
  %1 = alloca ptr, align 8
  %2 = load i8, ptr getelementptr inbounds nuw (%struct.pmix_gds_globals_t, ptr @pmix_gds_globals, i32 0, i32 1), align 8, !tbaa !3, !range !18, !noundef !19
  %3 = trunc i8 %2 to i1
  br i1 %3, label %5, label %4

4:                                                ; preds = %0
  store ptr null, ptr %1, align 8
  br label %8

5:                                                ; preds = %0
  %6 = load ptr, ptr getelementptr inbounds nuw (%struct.pmix_gds_globals_t, ptr @pmix_gds_globals, i32 0, i32 3), align 8, !tbaa !20
  %7 = call noalias ptr @strdup(ptr noundef %6) #7
  store ptr %7, ptr %1, align 8
  br label %8

8:                                                ; preds = %5, %4
  %9 = load ptr, ptr %1, align 8
  ret ptr %9
}