; Function Attrs: mustprogress nofree nounwind willreturn uwtable
define noalias ptr @pmix_gds_base_get_available_modules() local_unnamed_addr #0 {
  %1 = load i8, ptr getelementptr inbounds nuw (i8, ptr @pmix_gds_globals, i64 272), align 8, !tbaa !3, !range !18, !noundef !19
  %2 = trunc nuw i8 %1 to i1
  br i1 %2, label %3, label %6

3:                                                ; preds = %0
  %4 = load ptr, ptr getelementptr inbounds nuw (i8, ptr @pmix_gds_globals, i64 280), align 8, !tbaa !20
  %5 = tail call noalias ptr @strdup(ptr noundef %4) #8
  br label %6

6:                                                ; preds = %0, %3
  %.0 = phi ptr [ %5, %3 ], [ null, %0 ]
  ret ptr %.0
}